; Function Attrs: mustprogress uwtable
define noundef double @_ZNK8QuantLib28Gaussian1dSwaptionVolatility14volatilityImplERKNS_4DateERKNS_6PeriodEd(ptr noundef nonnull align 8 dereferenceable(128) %this, ptr noundef nonnull align 8 dereferenceable(8) %d, ptr noundef nonnull align 4 dereferenceable(8) %tenor, double noundef %strike) unnamed_addr #6 align 2 personality ptr @__gxx_personality_v0 {
entry:
  %ref.tmp = alloca %"class.boost::shared_ptr.34", align 8
  call void @llvm.lifetime.start.p0(i64 16, ptr nonnull %ref.tmp) #24
  %vtable = load ptr, ptr %this, align 8, !tbaa !35
  %vfn = getelementptr inbounds i8, ptr %vtable, i64 112
  %0 = load ptr, ptr %vfn, align 8
  call void %0(ptr dead_on_unwind nonnull writable sret(%"class.boost::shared_ptr.34") align 8 %ref.tmp, ptr noundef nonnull align 8 dereferenceable(128) %this, ptr noundef nonnull align 8 dereferenceable(8) %d, ptr noundef nonnull align 4 dereferenceable(8) %tenor)
  %1 = load ptr, ptr %ref.tmp, align 8, !tbaa !64
  %cmp.not.i = icmp eq ptr %1, null
  br i1 %cmp.not.i, label %cond.false.i, label %invoke.cont, !prof !53

cond.false.i:                                     ; preds = %entry
  invoke void @_ZN5boost16assertion_failedEPKcS1_S1_l(ptr noundef nonnull @.str.9, ptr noundef nonnull @__PRETTY_FUNCTION__._ZNK5boost10shared_ptrIN8QuantLib12SmileSectionEEptEv, ptr noundef nonnull @.str.10, i64 noundef 784)
          to label %.noexc unwind label %lpad

.noexc:                                           ; preds = %cond.false.i
  %.pre.i = load ptr, ptr %ref.tmp, align 8, !tbaa !64
  br label %invoke.cont

invoke.cont:                                      ; preds = %.noexc, %entry
  %2 = phi ptr [ %1, %entry ], [ %.pre.i, %.noexc ]
  %vtable.i = load ptr, ptr %2, align 8, !tbaa !35
  %vfn.i = getelementptr inbounds i8, ptr %vtable.i, i64 144
  %3 = load ptr, ptr %vfn.i, align 8
  %call.i1 = invoke noundef double %3(ptr noundef nonnull align 8 dereferenceable(72) %2, double noundef %strike)
          to label %invoke.cont2 unwind label %lpad

invoke.cont2:                                     ; preds = %invoke.cont
  %pn.i = getelementptr inbounds nuw i8, ptr %ref.tmp, i64 8
  %4 = load ptr, ptr %pn.i, align 8, !tbaa !37
  %cmp.not.i.i = icmp eq ptr %4, null
  br i1 %cmp.not.i.i, label %_ZN5boost10shared_ptrIN8QuantLib12SmileSectionEED2Ev.exit, label %if.then.i.i

if.then.i.i:                                      ; preds = %invoke.cont2
  %use_count_.i.i.i = getelementptr inbounds nuw i8, ptr %4, i64 8
  %5 = atomicrmw sub ptr %use_count_.i.i.i, i32 1 acq_rel, align 4
  %cmp.i.i.i = icmp eq i32 %5, 1
  br i1 %cmp.i.i.i, label %if.then.i.i.i, label %_ZN5boost10shared_ptrIN8QuantLib12SmileSectionEED2Ev.exit

if.then.i.i.i:                                    ; preds = %if.then.i.i
  %vtable.i.i.i = load ptr, ptr %4, align 8, !tbaa !35
  %vfn.i.i.i = getelementptr inbounds i8, ptr %vtable.i.i.i, i64 16
  %6 = load ptr, ptr %vfn.i.i.i, align 8
  invoke void %6(ptr noundef nonnull align 8 dereferenceable(16) %4)
          to label %.noexc.i.i unwind label %terminate.lpad.i.i

.noexc.i.i:                                       ; preds = %if.then.i.i.i
  %weak_count_.i.i.i.i = getelementptr inbounds nuw i8, ptr %4, i64 12
  %7 = atomicrmw sub ptr %weak_count_.i.i.i.i, i32 1 acq_rel, align 4
  %cmp.i.i.i.i = icmp eq i32 %7, 1
  br i1 %cmp.i.i.i.i, label %if.then.i.i.i.i, label %_ZN5boost10shared_ptrIN8QuantLib12SmileSectionEED2Ev.exit

if.then.i.i.i.i:                                  ; preds = %.noexc.i.i
  %vtable.i.i.i.i = load ptr, ptr %4, align 8, !tbaa !35
  %vfn.i.i.i.i = getelementptr inbounds i8, ptr %vtable.i.i.i.i, i64 24
  %8 = load ptr, ptr %vfn.i.i.i.i, align 8
  invoke void %8(ptr noundef nonnull align 8 dereferenceable(16) %4)
          to label %_ZN5boost10shared_ptrIN8QuantLib12SmileSectionEED2Ev.exit unwind label %terminate.lpad.i.i

terminate.lpad.i.i:                               ; preds = %if.then.i.i.i.i, %if.then.i.i.i
  %9 = landingpad { ptr, i32 }
          catch ptr null
  %10 = extractvalue { ptr, i32 } %9, 0
  call void @__clang_call_terminate(ptr %10) #25
  unreachable

_ZN5boost10shared_ptrIN8QuantLib12SmileSectionEED2Ev.exit: ; preds = %invoke.cont2, %if.then.i.i, %.noexc.i.i, %if.then.i.i.i.i
  call void @llvm.lifetime.end.p0(i64 16, ptr nonnull %ref.tmp) #24
  ret double %call.i1

lpad:                                             ; preds = %invoke.cont, %cond.false.i
  %11 = landingpad { ptr, i32 }
          cleanup
  call void @_ZN5boost10shared_ptrIN8QuantLib12SmileSectionEED2Ev(ptr noundef nonnull align 8 dereferenceable(16) %ref.tmp) #24
  call void @llvm.lifetime.end.p0(i64 16, ptr nonnull %ref.tmp) #24
  resume { ptr, i32 } %11
}